target datalayout = "e-m:e-p270:32:32-p271:32:32-p272:64:64-i64:64-i128:128-f80:128-n8:16:32:64-S128"
target triple = "x86_64-pc-linux-gnu"

%struct.ImVec2 = type { float, float }
%struct.ImGuiStyle = type { float, float, %struct.ImVec2, float, float, %struct.ImVec2, %struct.ImVec2, i32, float, float, float, float, %struct.ImVec2, float, float, %struct.ImVec2, %struct.ImVec2, %struct.ImVec2, %struct.ImVec2, float, float, float, float, float, float, float, float, float, float, float, float, float, %struct.ImVec2, i32, %struct.ImVec2, %struct.ImVec2, float, %struct.ImVec2, %struct.ImVec2, %struct.ImVec2, %struct.ImVec2, float, i8, i8, i8, float, float, [56 x %struct.ImVec4], float, float, float, i32, i32 }
%struct.ImVec4 = type { float, float, float, float }
%struct.ImGuiIO = type { i32, i32, %struct.ImVec2, float, float, ptr, ptr, ptr, ptr, float, i8, ptr, %struct.ImVec2, i8, i8, i8, i8, i8, i8, i8, i8, i8, i8, float, float, float, float, float, float, i8, i8, i8, i8, i8, i8, i8, i8, i8, i8, ptr, ptr, ptr, ptr, ptr, i8, i8, i8, i8, i8, i8, i8, float, i32, i32, i32, i32, %struct.ImVec2, ptr, %struct.ImVec2, [5 x i8], float, float, i32, i8, i8, i8, i8, i32, [154 x %struct.ImGuiKeyData], i8, %struct.ImVec2, [5 x %struct.ImVec2], [5 x double], [5 x i8], [5 x i8], [5 x i16], [5 x i16], [5 x i8], [5 x i8], [5 x i8], i8, i8, [5 x float], [5 x float], [5 x float], float, i8, i8, i8, i8, i16, %struct.ImVector }
%struct.ImGuiKeyData = type { i8, float, float, float }
%struct.ImVector = type { i32, i32, ptr }
%struct.ImGuiContext = type { i8, i8, %struct.ImGuiIO, %struct.ImGuiPlatformIO, %struct.ImGuiStyle, ptr, float, float, float, float, %struct.ImDrawListSharedData, double, i32, i32, i32, i8, i8, i8, i8, i8, ptr, [16 x i8], %struct.ImVector.1, %struct.ImVector.1, i32, i32, %struct.ImVector.2, %struct.ImVector.2, %struct.ImVector.2, %struct.ImVector.3, %struct.ImGuiStorage, i32, %struct.ImVec2, i32, ptr, ptr, ptr, ptr, ptr, ptr, %struct.ImVec2, i32, i32, float, %struct.ImVec2, %struct.ImVec2, i32, i32, i32, i32, i32, float, float, i8, i8, i8, i32, i32, float, i8, i8, i8, i8, i8, i8, i8, i8, %struct.ImVec2, ptr, i32, i32, i8, i8, ptr, i32, float, double, double, double, %struct.ImBitArray, [154 x %struct.ImGuiKeyOwnerData], %struct.ImGuiKeyRoutingTable, i32, i8, i32, i32, i32, i32, %struct.ImGuiNextItemData, %struct.ImGuiLastItemData, %struct.ImGuiNextWindowData, i8, i32, %struct.ImVector.6, %struct.ImVector.7, %struct.ImVector.8, %struct.ImVector.9, %struct.ImVector.10, %struct.ImVector.11, %struct.ImVector.12, %struct.ImVector.12, %struct.ImVector.13, %struct.ImVector.14, ptr, i32, i32, i32, i32, i32, i32, i32, %struct.ImVector.9, i32, float, i32, i32, i32, i64, i8, i8, i8, i8, i8, i8, i8, %struct.ImGuiNavItemData, i8, i8, i8, i32, i32, i32, i32, i32, i32, %struct.ImRect, %struct.ImRect, i32, i32, i32, %struct.ImGuiNavItemData, %struct.ImGuiNavItemData, %struct.ImGuiNavItemData, %struct.ImGuiNavItemData, i32, i32, i32, i32, i8, i8, i32, i32, ptr, ptr, ptr, float, float, i8, i32, %struct.ImVec2, %struct.ImVec2, float, i8, i8, i8, i32, i32, i32, [4 x i8], %struct.ImGuiPayload, %struct.ImRect, %struct.ImRect, i32, i32, float, i32, i32, i32, i32, %struct.ImVector.15, [16 x i8], i32, %struct.ImVector.16, ptr, i32, i32, %struct.ImVector.17, %struct.ImPool, %struct.ImVector.19, %struct.ImVector.20, ptr, %struct.ImPool.21, %struct.ImVector.23, %struct.ImVector.24, %struct.ImGuiBoxSelectState, ptr, i32, %struct.ImVector.25, %struct.ImPool.26, i32, i32, float, float, i32, i32, i32, float, %struct.ImVec2, %struct.ImGuiInputTextState, %struct.ImGuiInputTextDeactivatedState, %struct.ImFont, i32, %struct.ImGuiDataTypeStorage, i32, i32, i32, i32, i32, float, float, i32, %struct.ImVec4, %struct.ImGuiComboPreviewData, %struct.ImRect, i8, i16, float, float, float, i8, i8, float, float, float, i16, i16, i16, ptr, %struct.ImVector.28, %struct.ImVector.30, %struct.ImGuiTypingSelectState, %struct.ImGuiPlatformImeData, %struct.ImGuiPlatformImeData, i8, float, %struct.ImGuiTextBuffer, %struct.ImVector.31, %struct.ImChunkStream, %struct.ImChunkStream.32, %struct.ImVector.33, i32, [10 x ptr], i8, i32, ptr, %struct.ImGuiTextBuffer, ptr, ptr, float, i8, i32, i32, i32, ptr, ptr, %struct.ImVec2, i8, i32, %struct.ImGuiErrorRecoveryState, ptr, i32, i32, %struct.ImGuiTextBuffer, %struct.ImGuiTextIndex, i32, i32, i8, i8, i8, i32, i8, i8, i8, i32, float, %struct.ImVec4, %struct.ImGuiMetricsConfig, %struct.ImGuiIDStackTool, %struct.ImGuiDebugAllocInfo, [60 x float], i32, i32, float, i32, i32, i32, %struct.ImVector.28, [64 x i8] }
%struct.ImGuiPlatformIO = type <{ ptr, ptr, ptr, ptr, ptr, ptr, ptr, i16, [6 x i8] }>
%struct.ImDrawListSharedData = type { %struct.ImVec2, ptr, float, float, float, float, %struct.ImVec4, i32, %struct.ImVector.0, [48 x %struct.ImVec2], float, [64 x i8], ptr }
%struct.ImVector.0 = type { i32, i32, ptr }
%struct.ImVector.1 = type { i32, i32, ptr }
%struct.ImVector.2 = type { i32, i32, ptr }
%struct.ImVector.3 = type { i32, i32, ptr }
%struct.ImGuiStorage = type { %struct.ImVector.4 }
%struct.ImVector.4 = type { i32, i32, ptr }
%struct.ImBitArray = type { [5 x i32] }
%struct.ImGuiKeyOwnerData = type <{ i32, i32, i8, i8, [2 x i8] }>
%struct.ImGuiKeyRoutingTable = type { [154 x i16], %struct.ImVector.5, %struct.ImVector.5 }
%struct.ImVector.5 = type { i32, i32, ptr }
%struct.ImGuiNextItemData = type <{ i32, i32, i32, [4 x i8], i64, float, i32, i32, i8, i8, %struct.ImGuiDataTypeStorage, [2 x i8], i32, [4 x i8] }>
%struct.ImGuiLastItemData = type { i32, i32, i32, %struct.ImRect, %struct.ImRect, %struct.ImRect, %struct.ImRect, i32 }
%struct.ImGuiNextWindowData = type { i32, i32, i32, i32, %struct.ImVec2, %struct.ImVec2, %struct.ImVec2, %struct.ImVec2, %struct.ImVec2, i32, i8, %struct.ImRect, ptr, ptr, float, %struct.ImVec2, i32 }
%struct.ImVector.6 = type { i32, i32, ptr }
%struct.ImVector.7 = type { i32, i32, ptr }
%struct.ImVector.8 = type { i32, i32, ptr }
%struct.ImVector.10 = type { i32, i32, ptr }
%struct.ImVector.11 = type { i32, i32, ptr }
%struct.ImVector.12 = type { i32, i32, ptr }
%struct.ImVector.13 = type { i32, i32, ptr }
%struct.ImVector.14 = type { i32, i32, ptr }
%struct.ImVector.9 = type { i32, i32, ptr }
%struct.ImGuiNavItemData = type { ptr, i32, i32, %struct.ImRect, i32, float, float, float, i64 }
%struct.ImGuiPayload = type <{ ptr, i32, i32, i32, i32, [33 x i8], i8, i8, [5 x i8] }>
%struct.ImVector.15 = type { i32, i32, ptr }
%struct.ImVector.16 = type { i32, i32, ptr }
%struct.ImVector.17 = type { i32, i32, ptr }
%struct.ImPool = type { %struct.ImVector.18, %struct.ImGuiStorage, i32, i32 }
%struct.ImVector.18 = type { i32, i32, ptr }
%struct.ImVector.19 = type { i32, i32, ptr }
%struct.ImVector.20 = type { i32, i32, ptr }
%struct.ImPool.21 = type { %struct.ImVector.22, %struct.ImGuiStorage, i32, i32 }
%struct.ImVector.22 = type { i32, i32, ptr }
%struct.ImVector.23 = type { i32, i32, ptr }
%struct.ImVector.24 = type { i32, i32, ptr }
%struct.ImGuiBoxSelectState = type <{ i32, i8, i8, i8, i8, i8, i16, i8, %struct.ImVec2, %struct.ImVec2, %struct.ImVec2, [4 x i8], ptr, i8, [3 x i8], %struct.ImRect, %struct.ImRect, %struct.ImRect, [4 x i8] }>
%struct.ImVector.25 = type { i32, i32, ptr }
%struct.ImPool.26 = type { %struct.ImVector.27, %struct.ImGuiStorage, i32, i32 }
%struct.ImVector.27 = type { i32, i32, ptr }
%struct.ImGuiInputTextState = type <{ ptr, ptr, i32, i32, %struct.ImVector.28, %struct.ImVector.28, %struct.ImVector.28, i32, %struct.ImVec2, float, i8, i8, i8, i8, i32, i8, [3 x i8], i32, i32, [4 x i8] }>
%struct.ImGuiInputTextDeactivatedState = type { i32, %struct.ImVector.28 }
%struct.ImFont = type <{ %struct.ImVector.19, float, float, %struct.ImVector, %struct.ImVector.29, ptr, ptr, ptr, i16, i16, i16, i16, float, float, i8, [3 x i8], float, float, float, i32, [2 x i8], [2 x i8] }>
%struct.ImVector.29 = type { i32, i32, ptr }
%struct.ImGuiDataTypeStorage = type { [8 x i8] }
%struct.ImGuiComboPreviewData = type { %struct.ImRect, %struct.ImVec2, %struct.ImVec2, %struct.ImVec2, float, i32 }
%struct.ImRect = type { %struct.ImVec2, %struct.ImVec2 }
%struct.ImVector.30 = type { i32, i32, ptr }
%struct.ImGuiTypingSelectState = type <{ %struct.ImGuiTypingSelectRequest, [64 x i8], i32, i32, float, i8, [3 x i8] }>
%struct.ImGuiTypingSelectRequest = type { i32, i32, ptr, i8, i8, i8 }
%struct.ImGuiPlatformImeData = type { i8, %struct.ImVec2, float }
%struct.ImVector.31 = type { i32, i32, ptr }
%struct.ImChunkStream = type { %struct.ImVector.28 }
%struct.ImChunkStream.32 = type { %struct.ImVector.28 }
%struct.ImVector.33 = type { i32, i32, ptr }
%struct.ImGuiErrorRecoveryState = type { i16, i16, i16, i16, i16, i16, i16, i16, i16, i16, i16 }
%struct.ImGuiTextBuffer = type { %struct.ImVector.28 }
%struct.ImGuiTextIndex = type <{ %struct.ImVector.10, i32, [4 x i8] }>
%struct.ImGuiMetricsConfig = type { i8, i8, i8, i8, i8, i8, i8, i8, i8, i32, i32, i32, i32 }
%struct.ImGuiIDStackTool = type { i32, i32, i32, %struct.ImVector.34, i8, float }
%struct.ImVector.34 = type { i32, i32, ptr }
%struct.ImGuiDebugAllocInfo = type { i32, i32, i16, [6 x %struct.ImGuiDebugAllocEntry] }
%struct.ImGuiDebugAllocEntry = type { i32, i16, i16 }
%struct.ImVector.28 = type { i32, i32, ptr }
%struct.ImGuiWindow = type <{ ptr, ptr, i32, i32, i32, [4 x i8], ptr, %struct.ImVec2, %struct.ImVec2, %struct.ImVec2, %struct.ImVec2, %struct.ImVec2, %struct.ImVec2, %struct.ImVec2, float, float, float, float, float, float, float, float, float, float, i32, i32, i32, i32, %struct.ImVec2, %struct.ImVec2, %struct.ImVec2, %struct.ImVec2, %struct.ImVec2, %struct.ImVec2, i8, i8, i8, i8, i8, i8, i8, i8, i8, i8, i8, i8, i8, i8, i8, i8, i16, i16, i16, i16, i16, i8, i8, i8, [3 x i8], i32, i8, i8, i8, i8, i32, %struct.ImVec2, %struct.ImVec2, [4 x i8], %struct.ImVector.30, %struct.ImGuiWindowTempData, %struct.ImRect, %struct.ImRect, %struct.ImRect, %struct.ImRect, %struct.ImRect, %struct.ImRect, %struct.ImRect, %struct.ImVec2ih, %struct.ImVec2ih, i32, float, float, [4 x i8], %struct.ImGuiStorage, %struct.ImVector.37, float, i32, ptr, %struct.ImDrawList, ptr, ptr, ptr, ptr, ptr, ptr, ptr, ptr, [2 x i32], [2 x %struct.ImRect], [2 x %struct.ImVec2], i32, i32, i32, i8, [3 x i8] }>
%struct.ImGuiWindowTempData = type { %struct.ImVec2, %struct.ImVec2, %struct.ImVec2, %struct.ImVec2, %struct.ImVec2, %struct.ImVec2, %struct.ImVec2, float, float, i8, i8, %struct.ImVec1, %struct.ImVec1, %struct.ImVec1, %struct.ImVec2, i32, i16, i16, i8, i8, i8, i8, %struct.ImVec2, %struct.ImGuiMenuColumns, i32, i32, %struct.ImVector.2, ptr, ptr, i32, i32, i32, i32, float, float, %struct.ImVector.19, %struct.ImVector.19 }
%struct.ImVec1 = type { float }
%struct.ImGuiMenuColumns = type <{ i32, i32, i16, i16, i16, i16, i16, [4 x i16], [2 x i8] }>
%struct.ImVec2ih = type { i16, i16 }
%struct.ImVector.37 = type { i32, i32, ptr }
%struct.ImDrawList = type { %struct.ImVector.38, %struct.ImVector, %struct.ImVector.39, i32, i32, ptr, ptr, ptr, %struct.ImVector.0, %struct.ImDrawCmdHeader, %struct.ImDrawListSplitter, %struct.ImVector.40, %struct.ImVector.41, float, ptr }
%struct.ImVector.38 = type { i32, i32, ptr }
%struct.ImVector.39 = type { i32, i32, ptr }
%struct.ImDrawCmdHeader = type <{ %struct.ImVec4, ptr, i32, [4 x i8] }>
%struct.ImDrawListSplitter = type { i32, i32, %struct.ImVector.20 }
%struct.ImVector.40 = type { i32, i32, ptr }
%struct.ImVector.41 = type { i32, i32, ptr }

@GImGui = dso_local global ptr null, align 8

; Function Attrs: mustprogress nounwind uwtable
define dso_local void @_ZN5ImGui11KeepAliveIDEj(i32 noundef %0) #1 {
  %2 = alloca i32, align 4
  %3 = alloca ptr, align 8
  store i32 %0, ptr %2, align 4, !tbaa !117
  call void @llvm.lifetime.start.p0(i64 8, ptr %3) #16
  %4 = load ptr, ptr @GImGui, align 8, !tbaa !133
  store ptr %4, ptr %3, align 8, !tbaa !133
  %5 = load ptr, ptr %3, align 8, !tbaa !133
  %6 = getelementptr inbounds nuw %struct.ImGuiContext, ptr %5, i32 0, i32 56
  %7 = load i32, ptr %6, align 4, !tbaa !643
  %8 = load i32, ptr %2, align 4, !tbaa !117
  %9 = icmp eq i32 %7, %8
  br i1 %9, label %10, label %14

10:                                               ; preds = %1
  %11 = load i32, ptr %2, align 4, !tbaa !117
  %12 = load ptr, ptr %3, align 8, !tbaa !133
  %13 = getelementptr inbounds nuw %struct.ImGuiContext, ptr %12, i32 0, i32 57
  store i32 %11, ptr %13, align 8, !tbaa !644
  br label %14

14:                                               ; preds = %10, %1
  %15 = load ptr, ptr %3, align 8, !tbaa !133
  %16 = getelementptr inbounds nuw %struct.ImGuiContext, ptr %15, i32 0, i32 70
  %17 = load i32, ptr %16, align 4, !tbaa !654
  %18 = load i32, ptr %2, align 4, !tbaa !117
  %19 = icmp eq i32 %17, %18
  br i1 %19, label %20, label %23

20:                                               ; preds = %14
  %21 = load ptr, ptr %3, align 8, !tbaa !133
  %22 = getelementptr inbounds nuw %struct.ImGuiContext, ptr %21, i32 0, i32 71
  store i8 1, ptr %22, align 8, !tbaa !655
  br label %23

23:                                               ; preds = %20, %14
  call void @llvm.lifetime.end.p0(i64 8, ptr %3) #16
  ret void
}

; Function Attrs: mustprogress uwtable
define dso_local noundef zeroext i1 @_ZN5ImGui19BeginDragDropTargetEv() #0 {
  %1 = alloca i1, align 1
  %2 = alloca ptr, align 8
  %3 = alloca i32, align 4
  %4 = alloca ptr, align 8
  %5 = alloca ptr, align 8
  %6 = alloca ptr, align 8
  %7 = alloca i32, align 4
  call void @llvm.lifetime.start.p0(i64 8, ptr %2) #16
  %8 = load ptr, ptr @GImGui, align 8, !tbaa !133
  store ptr %8, ptr %2, align 8, !tbaa !133
  %9 = load ptr, ptr %2, align 8, !tbaa !133
  %10 = getelementptr inbounds nuw %struct.ImGuiContext, ptr %9, i32 0, i32 162
  %11 = load i8, ptr %10, align 4, !tbaa !711, !range !134, !noundef !135
  %12 = trunc i8 %11 to i1
  br i1 %12, label %14, label %13

13:                                               ; preds = %0
  store i1 false, ptr %1, align 1
  store i32 1, ptr %3, align 4
  br label %110

14:                                               ; preds = %0
  call void @llvm.lifetime.start.p0(i64 8, ptr %4) #16
  %15 = load ptr, ptr %2, align 8, !tbaa !133
  %16 = getelementptr inbounds nuw %struct.ImGuiContext, ptr %15, i32 0, i32 34
  %17 = load ptr, ptr %16, align 8, !tbaa !382
  store ptr %17, ptr %4, align 8, !tbaa !412
  %18 = load ptr, ptr %2, align 8, !tbaa !133
  %19 = getelementptr inbounds nuw %struct.ImGuiContext, ptr %18, i32 0, i32 89
  %20 = getelementptr inbounds nuw %struct.ImGuiLastItemData, ptr %19, i32 0, i32 2
  %21 = load i32, ptr %20, align 8, !tbaa !1032
  %22 = and i32 %21, 1
  %23 = icmp ne i32 %22, 0
  br i1 %23, label %25, label %24

24:                                               ; preds = %14
  store i1 false, ptr %1, align 1
  store i32 1, ptr %3, align 4
  br label %109

25:                                               ; preds = %14
  call void @llvm.lifetime.start.p0(i64 8, ptr %5) #16
  %26 = load ptr, ptr %2, align 8, !tbaa !133
  %27 = getelementptr inbounds nuw %struct.ImGuiContext, ptr %26, i32 0, i32 36
  %28 = load ptr, ptr %27, align 8, !tbaa !607
  store ptr %28, ptr %5, align 8, !tbaa !412
  %29 = load ptr, ptr %5, align 8, !tbaa !412
  %30 = icmp eq ptr %29, null
  br i1 %30, label %44, label %31

31:                                               ; preds = %25
  %32 = load ptr, ptr %4, align 8, !tbaa !412
  %33 = getelementptr inbounds nuw %struct.ImGuiWindow, ptr %32, i32 0, i32 91
  %34 = load ptr, ptr %33, align 8, !tbaa !1033
  %35 = load ptr, ptr %5, align 8, !tbaa !412
  %36 = getelementptr inbounds nuw %struct.ImGuiWindow, ptr %35, i32 0, i32 91
  %37 = load ptr, ptr %36, align 8, !tbaa !1033
  %38 = icmp ne ptr %34, %37
  br i1 %38, label %44, label %39

39:                                               ; preds = %31
  %40 = load ptr, ptr %4, align 8, !tbaa !412
  %41 = getelementptr inbounds nuw %struct.ImGuiWindow, ptr %40, i32 0, i32 41
  %42 = load i8, ptr %41, align 1, !tbaa !1297, !range !134, !noundef !135
  %43 = trunc i8 %42 to i1
  br i1 %43, label %44, label %45

44:                                               ; preds = %39, %31, %25
  store i1 false, ptr %1, align 1
  store i32 1, ptr %3, align 4
  br label %108

45:                                               ; preds = %39
  call void @llvm.lifetime.start.p0(i64 8, ptr %6) #16
  %46 = load ptr, ptr %2, align 8, !tbaa !133
  %47 = getelementptr inbounds nuw %struct.ImGuiContext, ptr %46, i32 0, i32 89
  %48 = getelementptr inbounds nuw %struct.ImGuiLastItemData, ptr %47, i32 0, i32 2
  %49 = load i32, ptr %48, align 8, !tbaa !1032
  %50 = and i32 %49, 2
  %51 = icmp ne i32 %50, 0
  br i1 %51, label %52, label %56

52:                                               ; preds = %45
  %53 = load ptr, ptr %2, align 8, !tbaa !133
  %54 = getelementptr inbounds nuw %struct.ImGuiContext, ptr %53, i32 0, i32 89
  %55 = getelementptr inbounds nuw %struct.ImGuiLastItemData, ptr %54, i32 0, i32 5
  br label %60

56:                                               ; preds = %45
  %57 = load ptr, ptr %2, align 8, !tbaa !133
  %58 = getelementptr inbounds nuw %struct.ImGuiContext, ptr %57, i32 0, i32 89
  %59 = getelementptr inbounds nuw %struct.ImGuiLastItemData, ptr %58, i32 0, i32 3
  br label %60

60:                                               ; preds = %56, %52
  %61 = phi ptr [ %55, %52 ], [ %59, %56 ]
  store ptr %61, ptr %6, align 8, !tbaa !544
  call void @llvm.lifetime.start.p0(i64 4, ptr %7) #16
  %62 = load ptr, ptr %2, align 8, !tbaa !133
  %63 = getelementptr inbounds nuw %struct.ImGuiContext, ptr %62, i32 0, i32 89
  %64 = getelementptr inbounds nuw %struct.ImGuiLastItemData, ptr %63, i32 0, i32 0
  %65 = load i32, ptr %64, align 8, !tbaa !1039
  store i32 %65, ptr %7, align 4, !tbaa !117
  %66 = load i32, ptr %7, align 4, !tbaa !117
  %67 = icmp eq i32 %66, 0
  br i1 %67, label %68, label %73

68:                                               ; preds = %60
  %69 = load ptr, ptr %4, align 8, !tbaa !412
  %70 = load ptr, ptr %6, align 8, !tbaa !544
  %71 = call noundef i32 @_ZN11ImGuiWindow18GetIDFromRectangleERK6ImRect(ptr noundef nonnull align 8 dereferenceable(1029) %69, ptr noundef nonnull align 4 dereferenceable(16) %70)
  store i32 %71, ptr %7, align 4, !tbaa !117
  %72 = load i32, ptr %7, align 4, !tbaa !117
  call void @_ZN5ImGui11KeepAliveIDEj(i32 noundef %72)
  br label %73

73:                                               ; preds = %68, %60
  %74 = load ptr, ptr %2, align 8, !tbaa !133
  %75 = getelementptr inbounds nuw %struct.ImGuiContext, ptr %74, i32 0, i32 169
  %76 = getelementptr inbounds nuw %struct.ImGuiPayload, ptr %75, i32 0, i32 2
  %77 = load i32, ptr %76, align 4, !tbaa !1043
  %78 = load i32, ptr %7, align 4, !tbaa !117
  %79 = icmp eq i32 %77, %78
  br i1 %79, label %80, label %81

80:                                               ; preds = %73
  store i1 false, ptr %1, align 1
  store i32 1, ptr %3, align 4
  br label %107

81:                                               ; preds = %73
  %82 = load ptr, ptr %6, align 8, !tbaa !544
  %83 = load ptr, ptr %2, align 8, !tbaa !133
  %84 = getelementptr inbounds nuw %struct.ImGuiContext, ptr %83, i32 0, i32 170
  call void @llvm.memcpy.p0.p0.i64(ptr align 8 %84, ptr align 4 %82, i64 16, i1 false), !tbaa.struct !493
  %85 = load ptr, ptr %2, align 8, !tbaa !133
  %86 = getelementptr inbounds nuw %struct.ImGuiContext, ptr %85, i32 0, i32 89
  %87 = getelementptr inbounds nuw %struct.ImGuiLastItemData, ptr %86, i32 0, i32 2
  %88 = load i32, ptr %87, align 8, !tbaa !1032
  %89 = and i32 %88, 512
  %90 = icmp ne i32 %89, 0
  br i1 %90, label %91, label %95

91:                                               ; preds = %81
  %92 = load ptr, ptr %2, align 8, !tbaa !133
  %93 = getelementptr inbounds nuw %struct.ImGuiContext, ptr %92, i32 0, i32 89
  %94 = getelementptr inbounds nuw %struct.ImGuiLastItemData, ptr %93, i32 0, i32 6
  br label %98

95:                                               ; preds = %81
  %96 = load ptr, ptr %4, align 8, !tbaa !412
  %97 = getelementptr inbounds nuw %struct.ImGuiWindow, ptr %96, i32 0, i32 75
  br label %98

98:                                               ; preds = %95, %91
  %99 = phi ptr [ %94, %91 ], [ %97, %95 ]
  %100 = load ptr, ptr %2, align 8, !tbaa !133
  %101 = getelementptr inbounds nuw %struct.ImGuiContext, ptr %100, i32 0, i32 171
  call void @llvm.memcpy.p0.p0.i64(ptr align 8 %101, ptr align 4 %99, i64 16, i1 false), !tbaa.struct !493
  %102 = load i32, ptr %7, align 4, !tbaa !117
  %103 = load ptr, ptr %2, align 8, !tbaa !133
  %104 = getelementptr inbounds nuw %struct.ImGuiContext, ptr %103, i32 0, i32 172
  store i32 %102, ptr %104, align 8, !tbaa !715
  %105 = load ptr, ptr %2, align 8, !tbaa !133
  %106 = getelementptr inbounds nuw %struct.ImGuiContext, ptr %105, i32 0, i32 164
  store i8 1, ptr %106, align 2, !tbaa !709
  store i1 true, ptr %1, align 1
  store i32 1, ptr %3, align 4
  br label %107

107:                                              ; preds = %98, %80
  call void @llvm.lifetime.end.p0(i64 4, ptr %7) #16
  call void @llvm.lifetime.end.p0(i64 8, ptr %6) #16
  br label %108

108:                                              ; preds = %107, %44
  call void @llvm.lifetime.end.p0(i64 8, ptr %5) #16
  br label %109

109:                                              ; preds = %108, %24
  call void @llvm.lifetime.end.p0(i64 8, ptr %4) #16
  br label %110

110:                                              ; preds = %109, %13
  call void @llvm.lifetime.end.p0(i64 8, ptr %2) #16
  %111 = load i1, ptr %1, align 1
  ret i1 %111
}