; Function Attrs: mustprogress nofree norecurse nosync nounwind willreturn memory(readwrite, inaccessiblemem: none) uwtable
define dso_local noundef zeroext i1 @_ZN5ImGui19BeginDragDropTargetEv() local_unnamed_addr #34 {
  %1 = load ptr, ptr @GImGui, align 8, !tbaa !211
  %2 = getelementptr inbounds nuw i8, ptr %1, i64 8332
  %3 = load i8, ptr %2, align 4, !tbaa !791, !range !92, !noundef !93
  %4 = trunc nuw i8 %3 to i1
  br i1 %4, label %5, label %54

5:                                                ; preds = %0
  %6 = getelementptr inbounds nuw i8, ptr %1, i64 4928
  %7 = load ptr, ptr %6, align 8, !tbaa !308
  %8 = getelementptr inbounds nuw i8, ptr %1, i64 7432
  %9 = getelementptr inbounds nuw i8, ptr %1, i64 7440
  %10 = load i32, ptr %9, align 8, !tbaa !771
  %11 = and i32 %10, 1
  %.not = icmp eq i32 %11, 0
  br i1 %.not, label %54, label %12

12:                                               ; preds = %5
  %13 = getelementptr inbounds nuw i8, ptr %1, i64 4944
  %14 = load ptr, ptr %13, align 8, !tbaa !1307
  %15 = icmp eq ptr %14, null
  br i1 %15, label %54, label %16

16:                                               ; preds = %12
  %17 = getelementptr inbounds nuw i8, ptr %7, i64 912
  %18 = load ptr, ptr %17, align 8, !tbaa !772
  %19 = getelementptr inbounds nuw i8, ptr %14, i64 912
  %20 = load ptr, ptr %19, align 8, !tbaa !772
  %.not30 = icmp eq ptr %18, %20
  br i1 %.not30, label %21, label %54

21:                                               ; preds = %16
  %22 = getelementptr inbounds nuw i8, ptr %7, i64 207
  %23 = load i8, ptr %22, align 1, !tbaa !1122, !range !92, !noundef !93
  %24 = trunc nuw i8 %23 to i1
  br i1 %24, label %54, label %25

25:                                               ; preds = %21
  %26 = and i32 %10, 2
  %.not31 = icmp eq i32 %26, 0
  %.v = select i1 %.not31, i64 7444, i64 7476
  %27 = getelementptr inbounds nuw i8, ptr %1, i64 %.v
  %28 = load i32, ptr %8, align 8, !tbaa !777
  %29 = icmp eq i32 %28, 0
  br i1 %29, label %30, label %_ZN5ImGui11KeepAliveIDEj.exit

30:                                               ; preds = %25
  %31 = tail call noundef i32 @_ZN11ImGuiWindow18GetIDFromRectangleERK6ImRect(ptr noundef nonnull align 8 dereferenceable(1029) %7, ptr noundef nonnull align 4 dereferenceable(16) %27)
  %32 = getelementptr inbounds nuw i8, ptr %1, i64 5044
  %33 = load i32, ptr %32, align 4, !tbaa !750
  %34 = icmp eq i32 %33, %31
  br i1 %34, label %35, label %37

35:                                               ; preds = %30
  %36 = getelementptr inbounds nuw i8, ptr %1, i64 5048
  store i32 %31, ptr %36, align 8, !tbaa !762
  br label %37

37:                                               ; preds = %35, %30
  %38 = getelementptr inbounds nuw i8, ptr %1, i64 5084
  %39 = load i32, ptr %38, align 4, !tbaa !595
  %40 = icmp eq i32 %39, %31
  br i1 %40, label %41, label %_ZN5ImGui11KeepAliveIDEj.exit

41:                                               ; preds = %37
  %42 = getelementptr inbounds nuw i8, ptr %1, i64 5088
  store i8 1, ptr %42, align 8, !tbaa !596
  br label %_ZN5ImGui11KeepAliveIDEj.exit

_ZN5ImGui11KeepAliveIDEj.exit:                    ; preds = %41, %37, %25
  %.0 = phi i32 [ %28, %25 ], [ %31, %37 ], [ %31, %41 ]
  %43 = getelementptr inbounds nuw i8, ptr %1, i64 8364
  %44 = load i32, ptr %43, align 4, !tbaa !792
  %.not33 = icmp eq i32 %44, %.0
  br i1 %.not33, label %54, label %45

45:                                               ; preds = %_ZN5ImGui11KeepAliveIDEj.exit
  %46 = getelementptr inbounds nuw i8, ptr %1, i64 8416
  tail call void @llvm.memcpy.p0.p0.i64(ptr noundef nonnull align 8 dereferenceable(16) %46, ptr noundef nonnull align 4 dereferenceable(16) %27, i64 16, i1 false), !tbaa.struct !417
  %47 = and i32 %10, 512
  %.not32 = icmp eq i32 %47, 0
  %48 = getelementptr inbounds nuw i8, ptr %1, i64 7492
  %49 = getelementptr inbounds nuw i8, ptr %7, i64 592
  %50 = select i1 %.not32, ptr %49, ptr %48
  %51 = getelementptr inbounds nuw i8, ptr %1, i64 8432
  tail call void @llvm.memcpy.p0.p0.i64(ptr noundef nonnull align 8 dereferenceable(16) %51, ptr noundef nonnull align 4 dereferenceable(16) %50, i64 16, i1 false), !tbaa.struct !417
  %52 = getelementptr inbounds nuw i8, ptr %1, i64 8448
  store i32 %.0, ptr %52, align 8, !tbaa !1308
  %53 = getelementptr inbounds nuw i8, ptr %1, i64 8334
  store i8 1, ptr %53, align 2, !tbaa !895
  br label %54

54:                                               ; preds = %5, %45, %_ZN5ImGui11KeepAliveIDEj.exit, %12, %16, %21, %0
  %.027 = phi i1 [ false, %0 ], [ false, %5 ], [ false, %21 ], [ false, %16 ], [ false, %12 ], [ false, %_ZN5ImGui11KeepAliveIDEj.exit ], [ true, %45 ]
  ret i1 %.027
}